; Function Attrs: nounwind uwtable
define void @dt_toast_markup_log(ptr noundef %0, ...) local_unnamed_addr #0 {
  %2 = alloca [1 x %struct.__va_list_tag], align 16
  call void @llvm.lifetime.start.p0(i64 24, ptr nonnull %2) #13
  call void @llvm.va_start.p0(ptr nonnull %2)
  call fastcc void @_toast_log(i32 noundef 1, ptr noundef %0, ptr noundef %2)
  call void @llvm.va_end.p0(ptr nonnull %2)
  call void @llvm.lifetime.end.p0(i64 24, ptr nonnull %2) #13
  ret void
}